target datalayout = "e-m:e-p270:32:32-p271:32:32-p272:64:64-i64:64-i128:128-f80:128-n8:16:32:64-S128"
target triple = "x86_64-pc-linux-gnu"

%struct.prte_oob_base_t = type { i32, i32, i32, i32, i32, %struct.pmix_list_t, i32, %struct.pmix_list_t, i32, i32, i8, ptr, ptr, ptr, ptr, i8, ptr, ptr, ptr, ptr, %struct.pmix_list_t, ptr, i32, %struct.pmix_list_t, %struct.pmix_thread_t, i8, %struct.timeval, [2 x i32], i32, i32, i32, i32, i32 }
%struct.pmix_list_t = type { %struct.pmix_object_t, %struct.pmix_list_item_t, i64 }
%struct.pmix_object_t = type { %union.pthread_mutex_t, ptr, i32, %struct.pmix_tma }
%union.pthread_mutex_t = type { %struct.__pthread_mutex_s }
%struct.__pthread_mutex_s = type { i32, i32, i32, i32, i32, i16, i16, %struct.__pthread_internal_list }
%struct.__pthread_internal_list = type { ptr, ptr }
%struct.pmix_tma = type { ptr, ptr, ptr, ptr, ptr, ptr, ptr, ptr }
%struct.pmix_list_item_t = type { %struct.pmix_object_t, ptr, ptr, i32 }
%struct.pmix_thread_t = type { %struct.pmix_object_t, ptr, ptr, i64 }
%struct.timeval = type { i64, i64 }
%struct.prte_process_info_t = type { %struct.pmix_proc, %struct.pmix_proc, ptr, %struct.pmix_proc, i32, i32, i32, ptr, ptr, i32, i8, ptr, i16, ptr, ptr, i8, ptr, i8 }
%struct.pmix_proc = type { [256 x i8], i32 }
%struct.pmix_output_desc_t = type { i8, i8, i32, i8, i32, ptr, ptr, i32, ptr, i32, i8, i8, i8, i8, ptr, i32, i32 }

@prte_oob_base = external global %struct.prte_oob_base_t, align 8
@prte_process_info = external global %struct.prte_process_info_t, align 8
@pmix_output_info = external global [0 x %struct.pmix_output_desc_t], align 8
@.str.61 = private unnamed_addr constant [43 x i8] c"%s send blocking of %lu bytes to socket %d\00", align 1
@.str.62 = private unnamed_addr constant [64 x i8] c"%s tcp_peer_send_blocking: send() to socket %d failed: %s (%d)\0A\00", align 1
@.str.63 = private unnamed_addr constant [39 x i8] c"%s blocking send complete to socket %d\00", align 1

; Function Attrs: inlinehint nounwind uwtable
define internal void @pmix_atomic_rmb() #2 {
  fence acquire
  ret void
}

; Function Attrs: nounwind uwtable
define internal i32 @tcp_peer_send_blocking(i32 noundef %0, ptr noundef %1, i64 noundef %2) #0 {
  %4 = alloca i32, align 4
  %5 = alloca i32, align 4
  %6 = alloca ptr, align 8
  %7 = alloca i64, align 8
  %8 = alloca ptr, align 8
  %9 = alloca i64, align 8
  %10 = alloca i32, align 4
  %11 = alloca i32, align 4
  store i32 %0, ptr %5, align 4, !tbaa !3
  store ptr %1, ptr %6, align 8, !tbaa !9
  store i64 %2, ptr %7, align 8, !tbaa !126
  call void @llvm.lifetime.start.p0(i64 8, ptr %8) #12
  %12 = load ptr, ptr %6, align 8, !tbaa !9
  store ptr %12, ptr %8, align 8, !tbaa !99
  call void @llvm.lifetime.start.p0(i64 8, ptr %9) #12
  store i64 0, ptr %9, align 8, !tbaa !126
  call void @llvm.lifetime.start.p0(i64 4, ptr %10) #12
  call void @pmix_atomic_rmb()
  %13 = load i32, ptr @prte_oob_base, align 8, !tbaa !64
  %14 = icmp sge i32 %13, 0
  br i1 %14, label %15, label %30

15:                                               ; preds = %3
  %16 = load i32, ptr @prte_oob_base, align 8, !tbaa !64
  %17 = icmp slt i32 %16, 64
  br i1 %17, label %18, label %30

18:                                               ; preds = %15
  %19 = load i32, ptr @prte_oob_base, align 8, !tbaa !64
  %20 = sext i32 %19 to i64
  %21 = getelementptr inbounds [0 x %struct.pmix_output_desc_t], ptr @pmix_output_info, i64 0, i64 %20
  %22 = getelementptr inbounds nuw %struct.pmix_output_desc_t, ptr %21, i32 0, i32 2
  %23 = load i32, ptr %22, align 4, !tbaa !34
  %24 = icmp sge i32 %23, 7
  br i1 %24, label %25, label %30

25:                                               ; preds = %18
  %26 = load i32, ptr @prte_oob_base, align 8, !tbaa !64
  %27 = call ptr @prte_util_print_name_args(ptr noundef @prte_process_info)
  %28 = load i64, ptr %7, align 8, !tbaa !126
  %29 = load i32, ptr %5, align 4, !tbaa !3
  call void (i32, ptr, ...) @pmix_output(i32 noundef %26, ptr noundef @.str.61, ptr noundef %27, i64 noundef %28, i32 noundef %29)
  br label %30

30:                                               ; preds = %25, %18, %15, %3
  br label %31

31:                                               ; preds = %68, %67, %30
  %32 = load i64, ptr %9, align 8, !tbaa !126
  %33 = load i64, ptr %7, align 8, !tbaa !126
  %34 = icmp ult i64 %32, %33
  br i1 %34, label %35, label %73

35:                                               ; preds = %31
  %36 = load i32, ptr %5, align 4, !tbaa !3
  %37 = load ptr, ptr %8, align 8, !tbaa !99
  %38 = load i64, ptr %9, align 8, !tbaa !126
  %39 = getelementptr inbounds nuw i8, ptr %37, i64 %38
  %40 = load i64, ptr %7, align 8, !tbaa !126
  %41 = load i64, ptr %9, align 8, !tbaa !126
  %42 = sub i64 %40, %41
  %43 = call i64 @send(i32 noundef %36, ptr noundef %39, i64 noundef %42, i32 noundef 0)
  %44 = trunc i64 %43 to i32
  store i32 %44, ptr %10, align 4, !tbaa !3
  %45 = load i32, ptr %10, align 4, !tbaa !3
  %46 = icmp slt i32 %45, 0
  br i1 %46, label %47, label %68

47:                                               ; preds = %35
  %48 = call ptr @__errno_location() #13
  %49 = load i32, ptr %48, align 4, !tbaa !3
  %50 = icmp ne i32 %49, 4
  br i1 %50, label %51, label %67

51:                                               ; preds = %47
  %52 = call ptr @__errno_location() #13
  %53 = load i32, ptr %52, align 4, !tbaa !3
  %54 = icmp ne i32 %53, 11
  br i1 %54, label %55, label %67

55:                                               ; preds = %51
  %56 = call ptr @__errno_location() #13
  %57 = load i32, ptr %56, align 4, !tbaa !3
  %58 = icmp ne i32 %57, 11
  br i1 %58, label %59, label %67

59:                                               ; preds = %55
  %60 = call ptr @prte_util_print_name_args(ptr noundef @prte_process_info)
  %61 = load i32, ptr %5, align 4, !tbaa !3
  %62 = call ptr @__errno_location() #13
  %63 = load i32, ptr %62, align 4, !tbaa !3
  %64 = call ptr @strerror(i32 noundef %63) #12
  %65 = call ptr @__errno_location() #13
  %66 = load i32, ptr %65, align 4, !tbaa !3
  call void (i32, ptr, ...) @pmix_output(i32 noundef 0, ptr noundef @.str.62, ptr noundef %60, i32 noundef %61, ptr noundef %64, i32 noundef %66)
  store i32 -12, ptr %4, align 4
  store i32 1, ptr %11, align 4
  br label %91

67:                                               ; preds = %55, %51, %47
  br label %31, !llvm.loop !138

68:                                               ; preds = %35
  %69 = load i32, ptr %10, align 4, !tbaa !3
  %70 = sext i32 %69 to i64
  %71 = load i64, ptr %9, align 8, !tbaa !126
  %72 = add i64 %71, %70
  store i64 %72, ptr %9, align 8, !tbaa !126
  br label %31, !llvm.loop !138

73:                                               ; preds = %31
  %74 = load i32, ptr @prte_oob_base, align 8, !tbaa !64
  %75 = icmp sge i32 %74, 0
  br i1 %75, label %76, label %90

76:                                               ; preds = %73
  %77 = load i32, ptr @prte_oob_base, align 8, !tbaa !64
  %78 = icmp slt i32 %77, 64
  br i1 %78, label %79, label %90

79:                                               ; preds = %76
  %80 = load i32, ptr @prte_oob_base, align 8, !tbaa !64
  %81 = sext i32 %80 to i64
  %82 = getelementptr inbounds [0 x %struct.pmix_output_desc_t], ptr @pmix_output_info, i64 0, i64 %81
  %83 = getelementptr inbounds nuw %struct.pmix_output_desc_t, ptr %82, i32 0, i32 2
  %84 = load i32, ptr %83, align 4, !tbaa !34
  %85 = icmp sge i32 %84, 7
  br i1 %85, label %86, label %90

86:                                               ; preds = %79
  %87 = load i32, ptr @prte_oob_base, align 8, !tbaa !64
  %88 = call ptr @prte_util_print_name_args(ptr noundef @prte_process_info)
  %89 = load i32, ptr %5, align 4, !tbaa !3
  call void (i32, ptr, ...) @pmix_output(i32 noundef %87, ptr noundef @.str.63, ptr noundef %88, i32 noundef %89)
  br label %90

90:                                               ; preds = %86, %79, %76, %73
  store i32 0, ptr %4, align 4
  store i32 1, ptr %11, align 4
  br label %91

91:                                               ; preds = %90, %59
  call void @llvm.lifetime.end.p0(i64 4, ptr %10) #12
  call void @llvm.lifetime.end.p0(i64 8, ptr %9) #12
  call void @llvm.lifetime.end.p0(i64 8, ptr %8) #12
  %92 = load i32, ptr %4, align 4
  ret i32 %92
}