; Function Attrs: nounwind uwtable
define internal fastcc range(i32 -12, 1) i32 @tcp_peer_send_blocking(i32 noundef %0, ptr noundef nonnull %1, i64 noundef %2) unnamed_addr #0 {
  fence acquire
  %4 = load i32, ptr @prte_oob_base, align 8, !tbaa !60
  %or.cond = icmp ult i32 %4, 64
  br i1 %or.cond, label %5, label %12

5:                                                ; preds = %3
  %6 = zext nneg i32 %4 to i64
  %7 = getelementptr inbounds nuw [0 x %struct.pmix_output_desc_t], ptr @pmix_output_info, i64 0, i64 %6, i32 2
  %8 = load i32, ptr %7, align 4, !tbaa !32
  %9 = icmp sgt i32 %8, 6
  br i1 %9, label %10, label %12

10:                                               ; preds = %5
  %11 = tail call ptr @prte_util_print_name_args(ptr noundef nonnull @prte_process_info) #15
  tail call void (i32, ptr, ...) @pmix_output(i32 noundef %4, ptr noundef nonnull @.str.61, ptr noundef %11, i64 noundef %2, i32 noundef %0) #15
  br label %12

12:                                               ; preds = %10, %5, %3
  %.not34 = icmp eq i64 %2, 0
  br i1 %.not34, label %.outer._crit_edge, label %.lr.ph.split.us

.lr.ph.split.us:                                  ; preds = %12, %.outer
  %.018.ph33 = phi i64 [ %28, %.outer ], [ 0, %12 ]
  %13 = getelementptr inbounds nuw i8, ptr %1, i64 %.018.ph33
  %14 = sub nuw i64 %2, %.018.ph33
  %15 = tail call i64 @send(i32 noundef %0, ptr noundef nonnull %13, i64 noundef %14, i32 noundef 0) #15
  %16 = and i64 %15, 2147483648
  %.not.us31 = icmp eq i64 %16, 0
  br i1 %.not.us31, label %.outer, label %.lr.ph32

.lr.ph32:                                         ; preds = %.lr.ph.split.us
  %17 = tail call ptr @__errno_location() #16
  br label %18

18:                                               ; preds = %.lr.ph32, %20
  %19 = load i32, ptr %17, align 4, !tbaa !12
  switch i32 %19, label %.split29.us [
    i32 4, label %20
    i32 11, label %20
  ]

20:                                               ; preds = %18, %18
  %21 = tail call i64 @send(i32 noundef %0, ptr noundef nonnull %13, i64 noundef %14, i32 noundef 0) #15
  %22 = and i64 %21, 2147483648
  %.not.us = icmp eq i64 %22, 0
  br i1 %.not.us, label %.outer, label %18

.split29.us:                                      ; preds = %18
  %23 = tail call ptr @prte_util_print_name_args(ptr noundef nonnull @prte_process_info) #15
  %24 = load i32, ptr %17, align 4, !tbaa !12
  %25 = tail call ptr @strerror(i32 noundef %24) #15
  %26 = load i32, ptr %17, align 4, !tbaa !12
  tail call void (i32, ptr, ...) @pmix_output(i32 noundef 0, ptr noundef nonnull @.str.62, ptr noundef %23, i32 noundef %0, ptr noundef %25, i32 noundef %26) #15
  br label %38

.outer:                                           ; preds = %20, %.lr.ph.split.us
  %.us-phi = phi i64 [ %15, %.lr.ph.split.us ], [ %21, %20 ]
  %27 = and i64 %.us-phi, 2147483647
  %28 = add i64 %27, %.018.ph33
  %29 = icmp ult i64 %28, %2
  br i1 %29, label %.lr.ph.split.us, label %.outer._crit_edge, !llvm.loop !111

.outer._crit_edge:                                ; preds = %.outer, %12
  %30 = load i32, ptr @prte_oob_base, align 8, !tbaa !60
  %or.cond3 = icmp ult i32 %30, 64
  br i1 %or.cond3, label %31, label %38

31:                                               ; preds = %.outer._crit_edge
  %32 = zext nneg i32 %30 to i64
  %33 = getelementptr inbounds nuw [0 x %struct.pmix_output_desc_t], ptr @pmix_output_info, i64 0, i64 %32, i32 2
  %34 = load i32, ptr %33, align 4, !tbaa !32
  %35 = icmp sgt i32 %34, 6
  br i1 %35, label %36, label %38

36:                                               ; preds = %31
  %37 = tail call ptr @prte_util_print_name_args(ptr noundef nonnull @prte_process_info) #15
  tail call void (i32, ptr, ...) @pmix_output(i32 noundef %30, ptr noundef nonnull @.str.63, ptr noundef %37, i32 noundef %0) #15
  br label %38

38:                                               ; preds = %.outer._crit_edge, %31, %36, %.split29.us
  %.0 = phi i32 [ -12, %.split29.us ], [ 0, %36 ], [ 0, %31 ], [ 0, %.outer._crit_edge ]
  ret i32 %.0
}